target datalayout = "e-m:e-p270:32:32-p271:32:32-p272:64:64-i64:64-i128:128-f80:128-n8:16:32:64-S128"
target triple = "x86_64-unknown-linux-gnu"

%"class.std::mersenne_twister_engine" = type { [624 x i64], i64 }
%"class.std::uniform_real_distribution" = type { %"struct.std::uniform_real_distribution<float>::param_type" }
%"struct.std::uniform_real_distribution<float>::param_type" = type { float, float }
%struct.random_uniform_distribution = type { %"class.std::mersenne_twister_engine", %"class.std::uniform_real_distribution" }

; Function Attrs: mustprogress nounwind uwtable
define linkonce_odr noundef i64 @_ZNSt8__detail4_ModImLm624ELm1ELm0ELb1ELb1EE6__calcEm(i64 noundef %__x) #6 comdat align 2 {
entry:
  %__x.addr = alloca i64, align 8
  %__res = alloca i64, align 8
  store i64 %__x, ptr %__x.addr, align 8
  %0 = load i64, ptr %__x.addr, align 8
  %mul = mul i64 1, %0
  %add = add i64 %mul, 0
  store i64 %add, ptr %__res, align 8
  %1 = load i64, ptr %__res, align 8
  %rem = urem i64 %1, 624
  store i64 %rem, ptr %__res, align 8
  %2 = load i64, ptr %__res, align 8
  ret i64 %2
}

; Function Attrs: mustprogress nounwind uwtable
define linkonce_odr noundef i64 @_ZNSt8__detail4_ModImLm4294967296ELm1ELm0ELb1ELb1EE6__calcEm(i64 noundef %__x) #6 comdat align 2 {
entry:
  %__x.addr = alloca i64, align 8
  %__res = alloca i64, align 8
  store i64 %__x, ptr %__x.addr, align 8
  %0 = load i64, ptr %__x.addr, align 8
  %mul = mul i64 1, %0
  %add = add i64 %mul, 0
  store i64 %add, ptr %__res, align 8
  %1 = load i64, ptr %__res, align 8
  %rem = urem i64 %1, 4294967296
  store i64 %rem, ptr %__res, align 8
  %2 = load i64, ptr %__res, align 8
  ret i64 %2
}

; Function Attrs: mustprogress uwtable
define linkonce_odr noundef i64 @_ZNSt8__detail5__modImTnT_Lm624ETnS1_Lm1ETnS1_Lm0EEES1_S1_(i64 noundef %__x) #4 comdat {
entry:
  %__x.addr = alloca i64, align 8
  %__a1 = alloca i64, align 8
  store i64 %__x, ptr %__x.addr, align 8
  store i64 1, ptr %__a1, align 8
  %0 = load i64, ptr %__x.addr, align 8
  %call = call noundef i64 @_ZNSt8__detail4_ModImLm624ELm1ELm0ELb1ELb1EE6__calcEm(i64 noundef %0)
  ret i64 %call
}

; Function Attrs: mustprogress uwtable
define linkonce_odr noundef i64 @_ZNSt8__detail5__modImTnT_Lm4294967296ETnS1_Lm1ETnS1_Lm0EEES1_S1_(i64 noundef %__x) #4 comdat {
entry:
  %__x.addr = alloca i64, align 8
  %__a1 = alloca i64, align 8
  store i64 %__x, ptr %__x.addr, align 8
  store i64 1, ptr %__a1, align 8
  %0 = load i64, ptr %__x.addr, align 8
  %call = call noundef i64 @_ZNSt8__detail4_ModImLm4294967296ELm1ELm0ELb1ELb1EE6__calcEm(i64 noundef %0)
  ret i64 %call
}

; Function Attrs: mustprogress nounwind uwtable
define linkonce_odr void @_ZNSt25uniform_real_distributionIfE10param_typeC2Eff(ptr noundef nonnull align 4 dereferenceable(8) %this, float noundef %__a, float noundef %__b) unnamed_addr #6 comdat align 2 {
entry:
  %this.addr = alloca ptr, align 8
  %__a.addr = alloca float, align 4
  %__b.addr = alloca float, align 4
  store ptr %this, ptr %this.addr, align 8
  store float %__a, ptr %__a.addr, align 4
  store float %__b, ptr %__b.addr, align 4
  %this1 = load ptr, ptr %this.addr, align 8
  %_M_a = getelementptr inbounds %"struct.std::uniform_real_distribution<float>::param_type", ptr %this1, i32 0, i32 0
  %0 = load float, ptr %__a.addr, align 4
  store float %0, ptr %_M_a, align 4
  %_M_b = getelementptr inbounds %"struct.std::uniform_real_distribution<float>::param_type", ptr %this1, i32 0, i32 1
  %1 = load float, ptr %__b.addr, align 4
  store float %1, ptr %_M_b, align 4
  br label %do.body

do.body:                                          ; preds = %entry
  br label %do.end

do.end:                                           ; preds = %do.body
  ret void
}

; Function Attrs: mustprogress uwtable
define linkonce_odr void @_ZNSt23mersenne_twister_engineImLm32ELm624ELm397ELm31ELm2567483615ELm11ELm4294967295ELm7ELm2636928640ELm15ELm4022730752ELm18ELm1812433253EE4seedEm(ptr noundef nonnull align 8 dereferenceable(5000) %this, i64 noundef %__sd) #4 comdat align 2 {
entry:
  %this.addr = alloca ptr, align 8
  %__sd.addr = alloca i64, align 8
  %__i = alloca i64, align 8
  %__x = alloca i64, align 8
  store ptr %this, ptr %this.addr, align 8
  store i64 %__sd, ptr %__sd.addr, align 8
  %this1 = load ptr, ptr %this.addr, align 8
  %0 = load i64, ptr %__sd.addr, align 8
  %call = call noundef i64 @_ZNSt8__detail5__modImTnT_Lm4294967296ETnS1_Lm1ETnS1_Lm0EEES1_S1_(i64 noundef %0)
  %_M_x = getelementptr inbounds %"class.std::mersenne_twister_engine", ptr %this1, i32 0, i32 0
  %arrayidx = getelementptr inbounds [624 x i64], ptr %_M_x, i64 0, i64 0
  store i64 %call, ptr %arrayidx, align 8
  store i64 1, ptr %__i, align 8
  br label %for.cond

for.cond:                                         ; preds = %for.inc, %entry
  %1 = load i64, ptr %__i, align 8
  %cmp = icmp ult i64 %1, 624
  br i1 %cmp, label %for.body, label %for.end

for.body:                                         ; preds = %for.cond
  %_M_x2 = getelementptr inbounds %"class.std::mersenne_twister_engine", ptr %this1, i32 0, i32 0
  %2 = load i64, ptr %__i, align 8
  %sub = sub i64 %2, 1
  %arrayidx3 = getelementptr inbounds [624 x i64], ptr %_M_x2, i64 0, i64 %sub
  %3 = load i64, ptr %arrayidx3, align 8
  store i64 %3, ptr %__x, align 8
  %4 = load i64, ptr %__x, align 8
  %shr = lshr i64 %4, 30
  %5 = load i64, ptr %__x, align 8
  %xor = xor i64 %5, %shr
  store i64 %xor, ptr %__x, align 8
  %6 = load i64, ptr %__x, align 8
  %mul = mul i64 %6, 1812433253
  store i64 %mul, ptr %__x, align 8
  %7 = load i64, ptr %__i, align 8
  %call4 = call noundef i64 @_ZNSt8__detail5__modImTnT_Lm624ETnS1_Lm1ETnS1_Lm0EEES1_S1_(i64 noundef %7)
  %8 = load i64, ptr %__x, align 8
  %add = add i64 %8, %call4
  store i64 %add, ptr %__x, align 8
  %9 = load i64, ptr %__x, align 8
  %call5 = call noundef i64 @_ZNSt8__detail5__modImTnT_Lm4294967296ETnS1_Lm1ETnS1_Lm0EEES1_S1_(i64 noundef %9)
  %_M_x6 = getelementptr inbounds %"class.std::mersenne_twister_engine", ptr %this1, i32 0, i32 0
  %10 = load i64, ptr %__i, align 8
  %arrayidx7 = getelementptr inbounds [624 x i64], ptr %_M_x6, i64 0, i64 %10
  store i64 %call5, ptr %arrayidx7, align 8
  br label %for.inc

for.inc:                                          ; preds = %for.body
  %11 = load i64, ptr %__i, align 8
  %inc = add i64 %11, 1
  store i64 %inc, ptr %__i, align 8
  br label %for.cond, !llvm.loop !45

for.end:                                          ; preds = %for.cond
  %_M_p = getelementptr inbounds %"class.std::mersenne_twister_engine", ptr %this1, i32 0, i32 1
  store i64 624, ptr %_M_p, align 8
  ret void
}

; Function Attrs: mustprogress uwtable
define linkonce_odr void @_ZNSt25uniform_real_distributionIfEC2Eff(ptr noundef nonnull align 4 dereferenceable(8) %this, float noundef %__a, float noundef %__b) unnamed_addr #4 comdat align 2 {
entry:
  %this.addr = alloca ptr, align 8
  %__a.addr = alloca float, align 4
  %__b.addr = alloca float, align 4
  store ptr %this, ptr %this.addr, align 8
  store float %__a, ptr %__a.addr, align 4
  store float %__b, ptr %__b.addr, align 4
  %this1 = load ptr, ptr %this.addr, align 8
  %_M_param = getelementptr inbounds %"class.std::uniform_real_distribution", ptr %this1, i32 0, i32 0
  %0 = load float, ptr %__a.addr, align 4
  %1 = load float, ptr %__b.addr, align 4
  call void @_ZNSt25uniform_real_distributionIfE10param_typeC2Eff(ptr noundef nonnull align 4 dereferenceable(8) %_M_param, float noundef %0, float noundef %1)
  ret void
}

; Function Attrs: mustprogress uwtable
define linkonce_odr void @_ZNSt23mersenne_twister_engineImLm32ELm624ELm397ELm31ELm2567483615ELm11ELm4294967295ELm7ELm2636928640ELm15ELm4022730752ELm18ELm1812433253EEC2Em(ptr noundef nonnull align 8 dereferenceable(5000) %this, i64 noundef %__sd) unnamed_addr #4 comdat align 2 {
entry:
  %this.addr = alloca ptr, align 8
  %__sd.addr = alloca i64, align 8
  store ptr %this, ptr %this.addr, align 8
  store i64 %__sd, ptr %__sd.addr, align 8
  %this1 = load ptr, ptr %this.addr, align 8
  %0 = load i64, ptr %__sd.addr, align 8
  call void @_ZNSt23mersenne_twister_engineImLm32ELm624ELm397ELm31ELm2567483615ELm11ELm4294967295ELm7ELm2636928640ELm15ELm4022730752ELm18ELm1812433253EE4seedEm(ptr noundef nonnull align 8 dereferenceable(5000) %this1, i64 noundef %0)
  ret void
}

; Function Attrs: mustprogress uwtable
define noundef ptr @_Z32init_random_uniform_distributioniff(i32 noundef %seed, float noundef %min, float noundef %max) #4 {
entry:
  %seed.addr = alloca i32, align 4
  %min.addr = alloca float, align 4
  %max.addr = alloca float, align 4
  %rnd = alloca ptr, align 8
  %ref.tmp = alloca %"class.std::mersenne_twister_engine", align 8
  %ref.tmp1 = alloca %"class.std::uniform_real_distribution", align 4
  store i32 %seed, ptr %seed.addr, align 4
  store float %min, ptr %min.addr, align 4
  store float %max, ptr %max.addr, align 4
  %call = call noalias ptr @malloc(i64 noundef 5008) #20
  store ptr %call, ptr %rnd, align 8
  %0 = load i32, ptr %seed.addr, align 4
  %conv = sext i32 %0 to i64
  call void @_ZNSt23mersenne_twister_engineImLm32ELm624ELm397ELm31ELm2567483615ELm11ELm4294967295ELm7ELm2636928640ELm15ELm4022730752ELm18ELm1812433253EEC2Em(ptr noundef nonnull align 8 dereferenceable(5000) %ref.tmp, i64 noundef %conv)
  %1 = load ptr, ptr %rnd, align 8
  %gen = getelementptr inbounds %struct.random_uniform_distribution, ptr %1, i32 0, i32 0
  call void @llvm.memcpy.p0.p0.i64(ptr align 8 %gen, ptr align 8 %ref.tmp, i64 5000, i1 false)
  %2 = load float, ptr %min.addr, align 4
  %3 = load float, ptr %max.addr, align 4
  call void @_ZNSt25uniform_real_distributionIfEC2Eff(ptr noundef nonnull align 4 dereferenceable(8) %ref.tmp1, float noundef %2, float noundef %3)
  %4 = load ptr, ptr %rnd, align 8
  %rd = getelementptr inbounds %struct.random_uniform_distribution, ptr %4, i32 0, i32 1
  call void @llvm.memcpy.p0.p0.i64(ptr align 8 %rd, ptr align 4 %ref.tmp1, i64 8, i1 false)
  %5 = load ptr, ptr %rnd, align 8
  ret ptr %5
}